; Function Attrs: mustprogress uwtable
define noundef i32 @_ZN3zmq6xpub_t11xgetsockoptEiPvPm(ptr noundef nonnull readonly align 8 captures(none) dereferenceable(2360) %0, i32 noundef %1, ptr noundef %2, ptr noundef %3) unnamed_addr #0 align 2 personality ptr @__gxx_personality_v0 {
  %5 = alloca i32, align 4
  %6 = icmp eq i32 %1, 116
  br i1 %6, label %7, label %11

7:                                                ; preds = %4
  %8 = getelementptr inbounds nuw i8, ptr %0, i64 1840
  %9 = load atomic i32, ptr %8 seq_cst, align 8
  call void @llvm.lifetime.start.p0(i64 4, ptr nonnull %5)
  store i32 %9, ptr %5, align 4, !tbaa !169
  %10 = call noundef i32 @_ZN3zmq13do_getsockoptEPvPmPKvm(ptr noundef %2, ptr noundef %3, ptr noundef nonnull %5, i64 noundef 4)
  call void @llvm.lifetime.end.p0(i64 4, ptr nonnull %5)
  br label %13

11:                                               ; preds = %4
  %12 = tail call ptr @__errno_location() #28
  store i32 22, ptr %12, align 4, !tbaa !169
  br label %13

13:                                               ; preds = %11, %7
  %.0 = phi i32 [ %10, %7 ], [ -1, %11 ]
  ret i32 %.0
}